target datalayout = "e-m:e-p270:32:32-p271:32:32-p272:64:64-i64:64-i128:128-f80:128-n8:16:32:64-S128"
target triple = "x86_64-pc-linux-gnu"

%struct._zend_array = type { %struct._zend_refcounted_h, %union.anon.0, i32, %union.anon.1, i32, i32, i32, i32, i64, ptr }
%struct._zend_refcounted_h = type { i32, %union.anon }
%union.anon = type { i32 }
%union.anon.0 = type { i32 }
%union.anon.1 = type { ptr }
%struct._zend_op_array = type { i8, [3 x i8], i32, ptr, ptr, ptr, i32, i32, ptr, ptr, ptr, ptr, i32, ptr, i32, i32, i32, ptr, ptr, ptr, ptr, ptr, i32, i32, ptr, ptr, ptr, i32, i32, i32, i32, ptr, ptr, [6 x ptr] }
%struct._zend_string = type { %struct._zend_refcounted_h, i64, i64, [1 x i8] }
%struct._zend_file_handle = type { %union.anon.8, ptr, ptr, i8, i8, i8, ptr, i64 }
%union.anon.8 = type { %struct._zend_stream }
%struct._zend_stream = type { ptr, i32, ptr, ptr, ptr }
%struct._zend_persistent_script = type { %struct._zend_script, i64, i32, i64, i8, i8, i8, i32, i32, ptr, ptr, ptr, i64, %struct.zend_persistent_script_dynamic_members }
%struct._zend_script = type { ptr, %struct._zend_op_array, %struct._zend_array, %struct._zend_array }
%struct.zend_persistent_script_dynamic_members = type { i64, i64, i32, i64 }

@accelerator_orig_zend_resolve_path = internal global ptr null, align 8

; Function Attrs: alwaysinline nounwind uwtable
define internal i32 @zend_gc_delref(ptr noundef %0) #3 {
  %2 = alloca ptr, align 8
  store ptr %0, ptr %2, align 8, !tbaa !66
  %3 = load ptr, ptr %2, align 8, !tbaa !66
  %4 = getelementptr inbounds nuw %struct._zend_refcounted_h, ptr %3, i32 0, i32 0
  %5 = load i32, ptr %4, align 4, !tbaa !68
  %6 = icmp ugt i32 %5, 0
  call void @llvm.assume(i1 %6)
  br label %7

7:                                                ; preds = %1
  br label %8

8:                                                ; preds = %7
  %9 = load ptr, ptr %2, align 8, !tbaa !66
  %10 = getelementptr inbounds nuw %struct._zend_refcounted_h, ptr %9, i32 0, i32 0
  %11 = load i32, ptr %10, align 4, !tbaa !68
  %12 = add i32 %11, -1
  store i32 %12, ptr %10, align 4, !tbaa !68
  ret i32 %12
}

; Function Attrs: alwaysinline nounwind uwtable
define internal i32 @zval_gc_flags(i32 noundef %0) #3 {
  %2 = alloca i32, align 4
  store i32 %0, ptr %2, align 4, !tbaa !4
  %3 = load i32, ptr %2, align 4, !tbaa !4
  %4 = lshr i32 %3, 0
  %5 = and i32 %4, 1008
  ret i32 %5
}

; Function Attrs: alwaysinline nounwind uwtable
define internal void @zend_string_release_ex(ptr noundef %0, i1 noundef zeroext %1) #3 {
  %3 = alloca ptr, align 8
  %4 = alloca i8, align 1
  store ptr %0, ptr %3, align 8, !tbaa !52
  %5 = zext i1 %1 to i8
  store i8 %5, ptr %4, align 1, !tbaa !53
  %6 = load ptr, ptr %3, align 8, !tbaa !52
  %7 = getelementptr inbounds nuw %struct._zend_string, ptr %6, i32 0, i32 0
  %8 = getelementptr inbounds nuw %struct._zend_refcounted_h, ptr %7, i32 0, i32 1
  %9 = load i32, ptr %8, align 4, !tbaa !65
  %10 = call i32 @zval_gc_flags(i32 noundef %9)
  %11 = and i32 %10, 64
  %12 = icmp ne i32 %11, 0
  br i1 %12, label %27, label %13

13:                                               ; preds = %2
  %14 = load ptr, ptr %3, align 8, !tbaa !52
  %15 = getelementptr inbounds nuw %struct._zend_string, ptr %14, i32 0, i32 0
  %16 = call i32 @zend_gc_delref(ptr noundef %15)
  %17 = icmp eq i32 %16, 0
  br i1 %17, label %18, label %26

18:                                               ; preds = %13
  %19 = load i8, ptr %4, align 1, !tbaa !53, !range !38, !noundef !39
  %20 = trunc i8 %19 to i1
  br i1 %20, label %21, label %23

21:                                               ; preds = %18
  %22 = load ptr, ptr %3, align 8, !tbaa !52
  call void @free(ptr noundef %22) #19
  br label %25

23:                                               ; preds = %18
  %24 = load ptr, ptr %3, align 8, !tbaa !52
  call void @_efree(ptr noundef %24)
  br label %25

25:                                               ; preds = %23, %21
  br label %26

26:                                               ; preds = %25, %13
  br label %27

27:                                               ; preds = %26, %2
  ret void
}

; Function Attrs: alwaysinline nounwind uwtable
define internal zeroext i1 @zend_string_equal_content(ptr noundef %0, ptr noundef %1) #3 {
  %3 = alloca ptr, align 8
  %4 = alloca ptr, align 8
  store ptr %0, ptr %3, align 8, !tbaa !52
  store ptr %1, ptr %4, align 8, !tbaa !52
  %5 = load ptr, ptr %3, align 8, !tbaa !52
  %6 = getelementptr inbounds nuw %struct._zend_string, ptr %5, i32 0, i32 2
  %7 = load i64, ptr %6, align 8, !tbaa !63
  %8 = load ptr, ptr %4, align 8, !tbaa !52
  %9 = getelementptr inbounds nuw %struct._zend_string, ptr %8, i32 0, i32 2
  %10 = load i64, ptr %9, align 8, !tbaa !63
  %11 = icmp eq i64 %7, %10
  br i1 %11, label %12, label %16

12:                                               ; preds = %2
  %13 = load ptr, ptr %3, align 8, !tbaa !52
  %14 = load ptr, ptr %4, align 8, !tbaa !52
  %15 = call zeroext i1 @zend_string_equal_val(ptr noundef %13, ptr noundef %14)
  br label %16

16:                                               ; preds = %12, %2
  %17 = phi i1 [ false, %2 ], [ %15, %12 ]
  ret i1 %17
}

; Function Attrs: inlinehint nounwind uwtable
define internal i32 @do_validate_timestamps(ptr noundef %0, ptr noundef %1) #8 {
  %3 = alloca i32, align 4
  %4 = alloca ptr, align 8
  %5 = alloca ptr, align 8
  %6 = alloca %struct._zend_file_handle, align 8
  %7 = alloca ptr, align 8
  %8 = alloca i32, align 4
  %9 = alloca i32, align 4
  store ptr %0, ptr %4, align 8, !tbaa !136
  store ptr %1, ptr %5, align 8, !tbaa !69
  call void @llvm.lifetime.start.p0(i64 80, ptr %6) #19
  call void @llvm.lifetime.start.p0(i64 8, ptr %7) #19
  store ptr null, ptr %7, align 8, !tbaa !52
  call void @llvm.lifetime.start.p0(i64 4, ptr %8) #19
  %10 = load ptr, ptr %5, align 8, !tbaa !69
  %11 = getelementptr inbounds nuw %struct._zend_file_handle, ptr %10, i32 0, i32 2
  %12 = load ptr, ptr %11, align 8, !tbaa !112
  %13 = icmp ne ptr %12, null
  br i1 %13, label %14, label %34

14:                                               ; preds = %2
  %15 = load ptr, ptr %4, align 8, !tbaa !136
  %16 = getelementptr inbounds nuw %struct._zend_persistent_script, ptr %15, i32 0, i32 0
  %17 = getelementptr inbounds nuw %struct._zend_script, ptr %16, i32 0, i32 0
  %18 = load ptr, ptr %17, align 8, !tbaa !153
  %19 = load ptr, ptr %5, align 8, !tbaa !69
  %20 = getelementptr inbounds nuw %struct._zend_file_handle, ptr %19, i32 0, i32 2
  %21 = load ptr, ptr %20, align 8, !tbaa !112
  %22 = icmp ne ptr %18, %21
  br i1 %22, label %23, label %33

23:                                               ; preds = %14
  %24 = load ptr, ptr %4, align 8, !tbaa !136
  %25 = getelementptr inbounds nuw %struct._zend_persistent_script, ptr %24, i32 0, i32 0
  %26 = getelementptr inbounds nuw %struct._zend_script, ptr %25, i32 0, i32 0
  %27 = load ptr, ptr %26, align 8, !tbaa !153
  %28 = load ptr, ptr %5, align 8, !tbaa !69
  %29 = getelementptr inbounds nuw %struct._zend_file_handle, ptr %28, i32 0, i32 2
  %30 = load ptr, ptr %29, align 8, !tbaa !112
  %31 = call zeroext i1 @zend_string_equal_content(ptr noundef %27, ptr noundef %30)
  br i1 %31, label %33, label %32

32:                                               ; preds = %23
  store i32 -1, ptr %3, align 4
  store i32 1, ptr %9, align 4
  br label %114

33:                                               ; preds = %23, %14
  br label %62

34:                                               ; preds = %2
  %35 = load ptr, ptr @accelerator_orig_zend_resolve_path, align 8, !tbaa !40
  %36 = load ptr, ptr %5, align 8, !tbaa !69
  %37 = getelementptr inbounds nuw %struct._zend_file_handle, ptr %36, i32 0, i32 1
  %38 = load ptr, ptr %37, align 8, !tbaa !111
  %39 = call ptr %35(ptr noundef %38)
  store ptr %39, ptr %7, align 8, !tbaa !52
  %40 = load ptr, ptr %7, align 8, !tbaa !52
  %41 = icmp ne ptr %40, null
  br i1 %41, label %42, label %58

42:                                               ; preds = %34
  %43 = load ptr, ptr %4, align 8, !tbaa !136
  %44 = getelementptr inbounds nuw %struct._zend_persistent_script, ptr %43, i32 0, i32 0
  %45 = getelementptr inbounds nuw %struct._zend_script, ptr %44, i32 0, i32 0
  %46 = load ptr, ptr %45, align 8, !tbaa !153
  %47 = load ptr, ptr %7, align 8, !tbaa !52
  %48 = icmp ne ptr %46, %47
  br i1 %48, label %49, label %58

49:                                               ; preds = %42
  %50 = load ptr, ptr %4, align 8, !tbaa !136
  %51 = getelementptr inbounds nuw %struct._zend_persistent_script, ptr %50, i32 0, i32 0
  %52 = getelementptr inbounds nuw %struct._zend_script, ptr %51, i32 0, i32 0
  %53 = load ptr, ptr %52, align 8, !tbaa !153
  %54 = load ptr, ptr %7, align 8, !tbaa !52
  %55 = call zeroext i1 @zend_string_equal_content(ptr noundef %53, ptr noundef %54)
  br i1 %55, label %58, label %56

56:                                               ; preds = %49
  %57 = load ptr, ptr %7, align 8, !tbaa !52
  call void @zend_string_release_ex(ptr noundef %57, i1 noundef zeroext false)
  store i32 -1, ptr %3, align 4
  store i32 1, ptr %9, align 4
  br label %114

58:                                               ; preds = %49, %42, %34
  %59 = load ptr, ptr %7, align 8, !tbaa !52
  %60 = load ptr, ptr %5, align 8, !tbaa !69
  %61 = getelementptr inbounds nuw %struct._zend_file_handle, ptr %60, i32 0, i32 2
  store ptr %59, ptr %61, align 8, !tbaa !112
  br label %62

62:                                               ; preds = %58, %33
  %63 = load ptr, ptr %4, align 8, !tbaa !136
  %64 = getelementptr inbounds nuw %struct._zend_persistent_script, ptr %63, i32 0, i32 3
  %65 = load i64, ptr %64, align 8, !tbaa !137
  %66 = icmp eq i64 %65, 0
  br i1 %66, label %67, label %75

67:                                               ; preds = %62
  %68 = load ptr, ptr %7, align 8, !tbaa !52
  %69 = icmp ne ptr %68, null
  br i1 %69, label %70, label %74

70:                                               ; preds = %67
  %71 = load ptr, ptr %7, align 8, !tbaa !52
  call void @zend_string_release_ex(ptr noundef %71, i1 noundef zeroext false)
  %72 = load ptr, ptr %5, align 8, !tbaa !69
  %73 = getelementptr inbounds nuw %struct._zend_file_handle, ptr %72, i32 0, i32 2
  store ptr null, ptr %73, align 8, !tbaa !112
  br label %74

74:                                               ; preds = %70, %67
  store i32 -1, ptr %3, align 4
  store i32 1, ptr %9, align 4
  br label %114

75:                                               ; preds = %62
  %76 = load ptr, ptr %5, align 8, !tbaa !69
  %77 = call i64 @zend_get_file_handle_timestamp(ptr noundef %76, ptr noundef null)
  %78 = load ptr, ptr %4, align 8, !tbaa !136
  %79 = getelementptr inbounds nuw %struct._zend_persistent_script, ptr %78, i32 0, i32 3
  %80 = load i64, ptr %79, align 8, !tbaa !137
  %81 = icmp eq i64 %77, %80
  br i1 %81, label %82, label %90

82:                                               ; preds = %75
  %83 = load ptr, ptr %7, align 8, !tbaa !52
  %84 = icmp ne ptr %83, null
  br i1 %84, label %85, label %89

85:                                               ; preds = %82
  %86 = load ptr, ptr %7, align 8, !tbaa !52
  call void @zend_string_release_ex(ptr noundef %86, i1 noundef zeroext false)
  %87 = load ptr, ptr %5, align 8, !tbaa !69
  %88 = getelementptr inbounds nuw %struct._zend_file_handle, ptr %87, i32 0, i32 2
  store ptr null, ptr %88, align 8, !tbaa !112
  br label %89

89:                                               ; preds = %85, %82
  store i32 0, ptr %3, align 4
  store i32 1, ptr %9, align 4
  br label %114

90:                                               ; preds = %75
  %91 = load ptr, ptr %7, align 8, !tbaa !52
  %92 = icmp ne ptr %91, null
  br i1 %92, label %93, label %97

93:                                               ; preds = %90
  %94 = load ptr, ptr %7, align 8, !tbaa !52
  call void @zend_string_release_ex(ptr noundef %94, i1 noundef zeroext false)
  %95 = load ptr, ptr %5, align 8, !tbaa !69
  %96 = getelementptr inbounds nuw %struct._zend_file_handle, ptr %95, i32 0, i32 2
  store ptr null, ptr %96, align 8, !tbaa !112
  br label %97

97:                                               ; preds = %93, %90
  %98 = load ptr, ptr %4, align 8, !tbaa !136
  %99 = getelementptr inbounds nuw %struct._zend_persistent_script, ptr %98, i32 0, i32 0
  %100 = getelementptr inbounds nuw %struct._zend_script, ptr %99, i32 0, i32 0
  %101 = load ptr, ptr %100, align 8, !tbaa !153
  call void @zend_stream_init_filename_ex(ptr noundef %6, ptr noundef %101)
  %102 = load ptr, ptr %4, align 8, !tbaa !136
  %103 = getelementptr inbounds nuw %struct._zend_persistent_script, ptr %102, i32 0, i32 0
  %104 = getelementptr inbounds nuw %struct._zend_script, ptr %103, i32 0, i32 0
  %105 = load ptr, ptr %104, align 8, !tbaa !153
  %106 = getelementptr inbounds nuw %struct._zend_file_handle, ptr %6, i32 0, i32 2
  store ptr %105, ptr %106, align 8, !tbaa !112
  %107 = call i64 @zend_get_file_handle_timestamp(ptr noundef %6, ptr noundef null)
  %108 = load ptr, ptr %4, align 8, !tbaa !136
  %109 = getelementptr inbounds nuw %struct._zend_persistent_script, ptr %108, i32 0, i32 3
  %110 = load i64, ptr %109, align 8, !tbaa !137
  %111 = icmp eq i64 %107, %110
  %112 = select i1 %111, i32 0, i32 -1
  store i32 %112, ptr %8, align 4, !tbaa !4
  call void @zend_destroy_file_handle(ptr noundef %6)
  %113 = load i32, ptr %8, align 4, !tbaa !4
  store i32 %113, ptr %3, align 4
  store i32 1, ptr %9, align 4
  br label %114

114:                                              ; preds = %97, %89, %74, %56, %32
  call void @llvm.lifetime.end.p0(i64 4, ptr %8) #19
  call void @llvm.lifetime.end.p0(i64 8, ptr %7) #19
  call void @llvm.lifetime.end.p0(i64 80, ptr %6) #19
  %115 = load i32, ptr %3, align 4
  ret i32 %115
}