; Function Attrs: inlinehint nounwind uwtable
define internal fastcc range(i32 -1, 1) i32 @do_validate_timestamps(ptr noundef readonly captures(none) %0, ptr noundef captures(none) %1) unnamed_addr #7 {
  %3 = alloca %struct._zend_file_handle, align 8
  call void @llvm.lifetime.start.p0(i64 80, ptr nonnull %3) #26
  %4 = getelementptr inbounds nuw i8, ptr %1, i64 48
  %5 = load ptr, ptr %4, align 8, !tbaa !77
  %.not = icmp eq ptr %5, null
  br i1 %.not, label %15, label %6

6:                                                ; preds = %2
  %7 = load ptr, ptr %0, align 8, !tbaa !141
  %.not37 = icmp eq ptr %7, %5
  br i1 %.not37, label %39, label %8

8:                                                ; preds = %6
  %9 = getelementptr inbounds nuw i8, ptr %7, i64 16
  %10 = load i64, ptr %9, align 8, !tbaa !60
  %11 = getelementptr inbounds nuw i8, ptr %5, i64 16
  %12 = load i64, ptr %11, align 8, !tbaa !60
  %13 = icmp eq i64 %10, %12
  br i1 %13, label %zend_string_equal_content.exit41, label %zend_string_release_ex.exit

zend_string_equal_content.exit41:                 ; preds = %8
  %14 = tail call zeroext i1 @zend_string_equal_val(ptr noundef nonnull %7, ptr noundef nonnull %5) #26
  br i1 %14, label %39, label %zend_string_release_ex.exit

15:                                               ; preds = %2
  %16 = load ptr, ptr @accelerator_orig_zend_resolve_path, align 8, !tbaa !39
  %17 = getelementptr inbounds nuw i8, ptr %1, i64 40
  %18 = load ptr, ptr %17, align 8, !tbaa !76
  %19 = tail call ptr %16(ptr noundef %18) #26
  %.not35 = icmp eq ptr %19, null
  br i1 %.not35, label %38, label %20

20:                                               ; preds = %15
  %21 = load ptr, ptr %0, align 8, !tbaa !141
  %.not36 = icmp eq ptr %21, %19
  br i1 %.not36, label %38, label %22

22:                                               ; preds = %20
  %23 = getelementptr inbounds nuw i8, ptr %21, i64 16
  %24 = load i64, ptr %23, align 8, !tbaa !60
  %25 = getelementptr inbounds nuw i8, ptr %19, i64 16
  %26 = load i64, ptr %25, align 8, !tbaa !60
  %27 = icmp eq i64 %24, %26
  br i1 %27, label %zend_string_equal_content.exit, label %zend_string_equal_content.exit.thread

zend_string_equal_content.exit:                   ; preds = %22
  %28 = tail call zeroext i1 @zend_string_equal_val(ptr noundef nonnull %21, ptr noundef nonnull %19) #26
  br i1 %28, label %38, label %zend_string_equal_content.exit.thread

zend_string_equal_content.exit.thread:            ; preds = %22, %zend_string_equal_content.exit
  %29 = getelementptr inbounds nuw i8, ptr %19, i64 4
  %30 = load i32, ptr %29, align 4, !tbaa !64
  %31 = and i32 %30, 64
  %.not.i = icmp eq i32 %31, 0
  br i1 %.not.i, label %32, label %zend_string_release_ex.exit

32:                                               ; preds = %zend_string_equal_content.exit.thread
  %33 = load i32, ptr %19, align 4, !tbaa !63
  %34 = icmp ne i32 %33, 0
  tail call void @llvm.assume(i1 %34)
  %35 = add i32 %33, -1
  store i32 %35, ptr %19, align 4, !tbaa !63
  %36 = icmp eq i32 %35, 0
  br i1 %36, label %37, label %zend_string_release_ex.exit

37:                                               ; preds = %32
  tail call void @_efree(ptr noundef nonnull %19) #26
  br label %zend_string_release_ex.exit

38:                                               ; preds = %zend_string_equal_content.exit, %20, %15
  store ptr %19, ptr %4, align 8, !tbaa !77
  br label %39

39:                                               ; preds = %6, %zend_string_equal_content.exit41, %38
  %.030 = phi ptr [ null, %zend_string_equal_content.exit41 ], [ null, %6 ], [ %19, %38 ]
  %40 = getelementptr inbounds nuw i8, ptr %0, i64 392
  %41 = load i64, ptr %40, align 8, !tbaa !124
  %42 = icmp eq i64 %41, 0
  br i1 %42, label %43, label %54

43:                                               ; preds = %39
  %.not40 = icmp eq ptr %.030, null
  br i1 %.not40, label %zend_string_release_ex.exit, label %44

44:                                               ; preds = %43
  %45 = getelementptr inbounds nuw i8, ptr %.030, i64 4
  %46 = load i32, ptr %45, align 4, !tbaa !64
  %47 = and i32 %46, 64
  %.not.i42 = icmp eq i32 %47, 0
  br i1 %.not.i42, label %48, label %zend_string_release_ex.exit43

48:                                               ; preds = %44
  %49 = load i32, ptr %.030, align 4, !tbaa !63
  %50 = icmp ne i32 %49, 0
  tail call void @llvm.assume(i1 %50)
  %51 = add i32 %49, -1
  store i32 %51, ptr %.030, align 4, !tbaa !63
  %52 = icmp eq i32 %51, 0
  br i1 %52, label %53, label %zend_string_release_ex.exit43

53:                                               ; preds = %48
  tail call void @_efree(ptr noundef nonnull %.030) #26
  br label %zend_string_release_ex.exit43

zend_string_release_ex.exit43:                    ; preds = %44, %48, %53
  store ptr null, ptr %4, align 8, !tbaa !77
  br label %zend_string_release_ex.exit

54:                                               ; preds = %39
  %55 = tail call i64 @zend_get_file_handle_timestamp(ptr noundef nonnull %1, ptr noundef null)
  %56 = load i64, ptr %40, align 8, !tbaa !124
  %57 = icmp eq i64 %55, %56
  %.not39 = icmp eq ptr %.030, null
  br i1 %57, label %58, label %69

58:                                               ; preds = %54
  br i1 %.not39, label %zend_string_release_ex.exit, label %59

59:                                               ; preds = %58
  %60 = getelementptr inbounds nuw i8, ptr %.030, i64 4
  %61 = load i32, ptr %60, align 4, !tbaa !64
  %62 = and i32 %61, 64
  %.not.i44 = icmp eq i32 %62, 0
  br i1 %.not.i44, label %63, label %zend_string_release_ex.exit45

63:                                               ; preds = %59
  %64 = load i32, ptr %.030, align 4, !tbaa !63
  %65 = icmp ne i32 %64, 0
  tail call void @llvm.assume(i1 %65)
  %66 = add i32 %64, -1
  store i32 %66, ptr %.030, align 4, !tbaa !63
  %67 = icmp eq i32 %66, 0
  br i1 %67, label %68, label %zend_string_release_ex.exit45

68:                                               ; preds = %63
  tail call void @_efree(ptr noundef nonnull %.030) #26
  br label %zend_string_release_ex.exit45

zend_string_release_ex.exit45:                    ; preds = %59, %63, %68
  store ptr null, ptr %4, align 8, !tbaa !77
  br label %zend_string_release_ex.exit

69:                                               ; preds = %54
  br i1 %.not39, label %80, label %70

70:                                               ; preds = %69
  %71 = getelementptr inbounds nuw i8, ptr %.030, i64 4
  %72 = load i32, ptr %71, align 4, !tbaa !64
  %73 = and i32 %72, 64
  %.not.i46 = icmp eq i32 %73, 0
  br i1 %.not.i46, label %74, label %zend_string_release_ex.exit47

74:                                               ; preds = %70
  %75 = load i32, ptr %.030, align 4, !tbaa !63
  %76 = icmp ne i32 %75, 0
  tail call void @llvm.assume(i1 %76)
  %77 = add i32 %75, -1
  store i32 %77, ptr %.030, align 4, !tbaa !63
  %78 = icmp eq i32 %77, 0
  br i1 %78, label %79, label %zend_string_release_ex.exit47

79:                                               ; preds = %74
  tail call void @_efree(ptr noundef nonnull %.030) #26
  br label %zend_string_release_ex.exit47

zend_string_release_ex.exit47:                    ; preds = %70, %74, %79
  store ptr null, ptr %4, align 8, !tbaa !77
  br label %80

80:                                               ; preds = %zend_string_release_ex.exit47, %69
  %81 = load ptr, ptr %0, align 8, !tbaa !141
  call void @zend_stream_init_filename_ex(ptr noundef nonnull %3, ptr noundef %81) #26
  %82 = load ptr, ptr %0, align 8, !tbaa !141
  %83 = getelementptr inbounds nuw i8, ptr %3, i64 48
  store ptr %82, ptr %83, align 8, !tbaa !77
  %84 = call i64 @zend_get_file_handle_timestamp(ptr noundef nonnull %3, ptr noundef null)
  %85 = load i64, ptr %40, align 8, !tbaa !124
  %86 = icmp ne i64 %84, %85
  %87 = sext i1 %86 to i32
  call void @zend_destroy_file_handle(ptr noundef nonnull %3) #26
  br label %zend_string_release_ex.exit

zend_string_release_ex.exit:                      ; preds = %8, %37, %32, %zend_string_equal_content.exit.thread, %58, %zend_string_release_ex.exit45, %43, %zend_string_release_ex.exit43, %zend_string_equal_content.exit41, %80
  %.0 = phi i32 [ %87, %80 ], [ -1, %zend_string_equal_content.exit41 ], [ -1, %zend_string_release_ex.exit43 ], [ -1, %43 ], [ 0, %zend_string_release_ex.exit45 ], [ 0, %58 ], [ -1, %zend_string_equal_content.exit.thread ], [ -1, %32 ], [ -1, %37 ], [ -1, %8 ]
  call void @llvm.lifetime.end.p0(i64 80, ptr nonnull %3) #26
  ret i32 %.0
}